target datalayout = "e-m:e-p270:32:32-p271:32:32-p272:64:64-i64:64-i128:128-f80:128-n8:16:32:64-S128"
target triple = "x86_64-pc-linux-gnu"

; Function Attrs: nounwind uwtable
define hidden i64 @Curl_hash_str(ptr noundef %0, i64 noundef %1, i64 noundef %2) #0 {
  %4 = alloca ptr, align 8
  %5 = alloca i64, align 8
  %6 = alloca i64, align 8
  %7 = alloca ptr, align 8
  %8 = alloca ptr, align 8
  %9 = alloca i64, align 8
  %10 = alloca i64, align 8
  store ptr %0, ptr %4, align 8, !tbaa !10
  store i64 %1, ptr %5, align 8, !tbaa !8
  store i64 %2, ptr %6, align 8, !tbaa !8
  call void @llvm.lifetime.start.p0(i64 8, ptr %7) #5
  %11 = load ptr, ptr %4, align 8, !tbaa !10
  store ptr %11, ptr %7, align 8, !tbaa !37
  call void @llvm.lifetime.start.p0(i64 8, ptr %8) #5
  %12 = load ptr, ptr %7, align 8, !tbaa !37
  %13 = load i64, ptr %5, align 8, !tbaa !8
  %14 = getelementptr inbounds nuw i8, ptr %12, i64 %13
  store ptr %14, ptr %8, align 8, !tbaa !37
  call void @llvm.lifetime.start.p0(i64 8, ptr %9) #5
  store i64 5381, ptr %9, align 8, !tbaa !8
  br label %15

15:                                               ; preds = %19, %3
  %16 = load ptr, ptr %7, align 8, !tbaa !37
  %17 = load ptr, ptr %8, align 8, !tbaa !37
  %18 = icmp ult ptr %16, %17
  br i1 %18, label %19, label %31

19:                                               ; preds = %15
  call void @llvm.lifetime.start.p0(i64 8, ptr %10) #5
  %20 = load ptr, ptr %7, align 8, !tbaa !37
  %21 = getelementptr inbounds nuw i8, ptr %20, i32 1
  store ptr %21, ptr %7, align 8, !tbaa !37
  %22 = load i8, ptr %20, align 1, !tbaa !39
  %23 = sext i8 %22 to i64
  store i64 %23, ptr %10, align 8, !tbaa !8
  %24 = load i64, ptr %9, align 8, !tbaa !8
  %25 = shl i64 %24, 5
  %26 = load i64, ptr %9, align 8, !tbaa !8
  %27 = add i64 %26, %25
  store i64 %27, ptr %9, align 8, !tbaa !8
  %28 = load i64, ptr %10, align 8, !tbaa !8
  %29 = load i64, ptr %9, align 8, !tbaa !8
  %30 = xor i64 %29, %28
  store i64 %30, ptr %9, align 8, !tbaa !8
  call void @llvm.lifetime.end.p0(i64 8, ptr %10) #5
  br label %15, !llvm.loop !40

31:                                               ; preds = %15
  %32 = load i64, ptr %9, align 8, !tbaa !8
  %33 = load i64, ptr %6, align 8, !tbaa !8
  %34 = urem i64 %32, %33
  call void @llvm.lifetime.end.p0(i64 8, ptr %9) #5
  call void @llvm.lifetime.end.p0(i64 8, ptr %8) #5
  call void @llvm.lifetime.end.p0(i64 8, ptr %7) #5
  ret i64 %34
}